; Function Attrs: mustprogress nofree norecurse nosync nounwind willreturn memory(read, inaccessiblemem: none) uwtable
define hidden noundef ptr @_ZNK13InstanceKlass17generic_signatureEv(ptr nocapture noundef nonnull readonly align 8 dereferenceable(464) %0) local_unnamed_addr #3 align 2 {
  %2 = getelementptr inbounds i8, ptr %0, i64 224
  %3 = load ptr, ptr %2, align 8
  %4 = getelementptr inbounds i8, ptr %3, i64 52
  %5 = load i16, ptr %4, align 4
  %6 = icmp eq i16 %5, 0
  br i1 %6, label %_ZNK12ConstantPool17generic_signatureEv.exit, label %7

7:                                                ; preds = %1
  %8 = getelementptr inbounds i8, ptr %3, i64 72
  %9 = zext i16 %5 to i64
  %10 = getelementptr inbounds i64, ptr %8, i64 %9
  %11 = load ptr, ptr %10, align 8
  br label %_ZNK12ConstantPool17generic_signatureEv.exit

_ZNK12ConstantPool17generic_signatureEv.exit:     ; preds = %1, %7
  %12 = phi ptr [ %11, %7 ], [ null, %1 ]
  ret ptr %12
}